; Function Attrs: nounwind uwtable
define internal fastcc zeroext i1 @ir_may_fuse_addr(ptr noundef %0, ptr nocapture noundef readonly %1) unnamed_addr #1 {
  %3 = load i8, ptr %1, align 8
  %.off = add i8 %3, -66
  %switch = icmp ult i8 %.off, 3
  %4 = getelementptr i8, ptr %1, i64 8
  br i1 %switch, label %5, label %21

5:                                                ; preds = %2
  %.val = load i32, ptr %4, align 8
  %6 = tail call ptr @ir_get_str(ptr noundef %0, i32 noundef %.val) #22
  %7 = getelementptr inbounds i8, ptr %0, i64 328
  %8 = load ptr, ptr %7, align 8
  %.not.i = icmp eq ptr %8, null
  br i1 %.not.i, label %14, label %9

9:                                                ; preds = %5
  %10 = getelementptr inbounds i8, ptr %8, i64 96
  %11 = load ptr, ptr %10, align 8
  %.not10.i = icmp eq ptr %11, null
  br i1 %.not10.i, label %14, label %12

12:                                               ; preds = %9
  %13 = tail call ptr %11(ptr noundef nonnull %8, ptr noundef %6, i1 noundef zeroext false) #22
  br label %ir_sym_addr.exit

14:                                               ; preds = %9, %5
  %15 = tail call ptr @dlsym(ptr noundef null, ptr noundef %6) #22
  br label %ir_sym_addr.exit

ir_sym_addr.exit:                                 ; preds = %12, %14
  %16 = phi ptr [ %13, %12 ], [ %15, %14 ]
  %.not = icmp eq ptr %16, null
  br i1 %.not, label %24, label %17

17:                                               ; preds = %ir_sym_addr.exit
  %18 = icmp slt ptr %16, inttoptr (i64 2147483648 to ptr)
  %19 = icmp sgt ptr %16, inttoptr (i64 -2147483649 to ptr)
  %20 = and i1 %18, %19
  br label %24

21:                                               ; preds = %2
  %22 = load i64, ptr %4, align 8
  %23 = add i64 %22, 2147483648
  %spec.select = icmp ult i64 %23, 4294967296
  br label %24

24:                                               ; preds = %ir_sym_addr.exit, %21, %17
  %.0 = phi i1 [ %20, %17 ], [ %spec.select, %21 ], [ false, %ir_sym_addr.exit ]
  ret i1 %.0
}